; Function Attrs: nofree norecurse nosync nounwind memory(argmem: readwrite) uwtable
define internal void @conv_AV_SAMPLE_FMT_U8_to_AV_SAMPLE_FMT_U8(ptr noundef writeonly captures(address) %0, ptr noundef readonly captures(none) %1, i32 noundef %2, i32 noundef %3, ptr noundef readnone captures(address) %4) #4 {
  %6 = mul nsw i32 %3, 3
  %7 = sext i32 %6 to i64
  %8 = sub nsw i64 0, %7
  %9 = getelementptr inbounds i8, ptr %4, i64 %8
  %10 = icmp ult ptr %0, %9
  br i1 %10, label %.lr.ph, label %.preheader

.lr.ph:                                           ; preds = %5
  %11 = sext i32 %2 to i64
  %12 = sext i32 %3 to i64
  br label %16

.preheader:                                       ; preds = %16, %5
  %.035.lcssa = phi ptr [ %1, %5 ], [ %27, %16 ]
  %.0.lcssa = phi ptr [ %0, %5 ], [ %28, %16 ]
  %13 = icmp ult ptr %.0.lcssa, %4
  br i1 %13, label %.lr.ph42, label %._crit_edge

.lr.ph42:                                         ; preds = %.preheader
  %14 = sext i32 %2 to i64
  %15 = sext i32 %3 to i64
  br label %30

16:                                               ; preds = %.lr.ph, %16
  %.038 = phi ptr [ %0, %.lr.ph ], [ %28, %16 ]
  %.03537 = phi ptr [ %1, %.lr.ph ], [ %27, %16 ]
  %17 = load i8, ptr %.03537, align 1, !tbaa !29
  store i8 %17, ptr %.038, align 1, !tbaa !29
  %18 = getelementptr inbounds i8, ptr %.03537, i64 %11
  %19 = getelementptr inbounds i8, ptr %.038, i64 %12
  %20 = load i8, ptr %18, align 1, !tbaa !29
  store i8 %20, ptr %19, align 1, !tbaa !29
  %21 = getelementptr inbounds i8, ptr %18, i64 %11
  %22 = getelementptr inbounds i8, ptr %19, i64 %12
  %23 = load i8, ptr %21, align 1, !tbaa !29
  store i8 %23, ptr %22, align 1, !tbaa !29
  %24 = getelementptr inbounds i8, ptr %21, i64 %11
  %25 = getelementptr inbounds i8, ptr %22, i64 %12
  %26 = load i8, ptr %24, align 1, !tbaa !29
  store i8 %26, ptr %25, align 1, !tbaa !29
  %27 = getelementptr inbounds i8, ptr %24, i64 %11
  %28 = getelementptr inbounds i8, ptr %25, i64 %12
  %29 = icmp ult ptr %28, %9
  br i1 %29, label %16, label %.preheader, !llvm.loop !30

30:                                               ; preds = %.lr.ph42, %30
  %.141 = phi ptr [ %.0.lcssa, %.lr.ph42 ], [ %33, %30 ]
  %.13640 = phi ptr [ %.035.lcssa, %.lr.ph42 ], [ %32, %30 ]
  %31 = load i8, ptr %.13640, align 1, !tbaa !29
  store i8 %31, ptr %.141, align 1, !tbaa !29
  %32 = getelementptr inbounds i8, ptr %.13640, i64 %14
  %33 = getelementptr inbounds i8, ptr %.141, i64 %15
  %34 = icmp ult ptr %33, %4
  br i1 %34, label %30, label %._crit_edge, !llvm.loop !31

._crit_edge:                                      ; preds = %30, %.preheader
  ret void
}